; ModuleID = '40/1625.c'
source_filename = "40/1625.c"
target datalayout = "e-m:e-p270:32:32-p271:32:32-p272:64:64-i64:64-f80:128-n8:16:32:64-S128"
target triple = "x86_64-pc-linux-gnu"

@.str = private unnamed_addr constant [14 x i8] c"Invalid input\00", align 1
@.str.1 = private unnamed_addr constant [6 x i8] c"%.4lf\00", align 1
@.str.2 = private unnamed_addr constant [16 x i8] c"%lf%lf%lf%lf%lf\00", align 1

; Function Attrs: noinline nounwind uwtable
define dso_local double @i(double %0, double %1, double %2, double %3, double %4) #0 {
  %6 = alloca double, align 8
  %7 = alloca double, align 8
  %8 = alloca double, align 8
  %9 = alloca double, align 8
  %10 = alloca double, align 8
  %11 = alloca double, align 8
  %12 = alloca double, align 8
  %13 = alloca double, align 8
  %14 = alloca double, align 8
  store double %0, double* %6, align 8
  store double %1, double* %7, align 8
  store double %2, double* %8, align 8
  store double %3, double* %9, align 8
  store double %4, double* %10, align 8
  store double 0x400921FB4D12D84A, double* %13, align 8
  %15 = load double, double* %6, align 8
  %16 = load double, double* %7, align 8
  %17 = fadd double %15, %16
  %18 = load double, double* %8, align 8
  %19 = fadd double %17, %18
  %20 = load double, double* %9, align 8
  %21 = fadd double %19, %20
  %22 = fdiv double %21, 2.000000e+00
  store double %22, double* %11, align 8
  %23 = load double, double* %10, align 8
  %24 = fdiv double %23, 1.800000e+02
  %25 = load double, double* %13, align 8
  %26 = fmul double %24, %25
  store double %26, double* %14, align 8
  %27 = load double, double* %11, align 8
  %28 = load double, double* %6, align 8
  %29 = fsub double %27, %28
  %30 = load double, double* %11, align 8
  %31 = load double, double* %7, align 8
  %32 = fsub double %30, %31
  %33 = fmul double %29, %32
  %34 = load double, double* %11, align 8
  %35 = load double, double* %8, align 8
  %36 = fsub double %34, %35
  %37 = fmul double %33, %36
  %38 = load double, double* %11, align 8
  %39 = load double, double* %9, align 8
  %40 = fsub double %38, %39
  %41 = fmul double %37, %40
  %42 = load double, double* %6, align 8
  %43 = load double, double* %7, align 8
  %44 = fmul double %42, %43
  %45 = load double, double* %8, align 8
  %46 = fmul double %44, %45
  %47 = load double, double* %9, align 8
  %48 = fmul double %46, %47
  %49 = load double, double* %14, align 8
  %50 = fdiv double %49, 2.000000e+00
  %51 = call double @cos(double %50) #3
  %52 = fmul double %48, %51
  %53 = load double, double* %14, align 8
  %54 = fdiv double %53, 2.000000e+00
  %55 = call double @cos(double %54) #3
  %56 = fmul double %52, %55
  %57 = fsub double %41, %56
  store double %57, double* %12, align 8
  %58 = load double, double* %12, align 8
  %59 = fcmp olt double %58, 0.000000e+00
  br i1 %59, label %60, label %62

60:                                               ; preds = %5
  %61 = call i32 (i8*, ...) @printf(i8* getelementptr inbounds ([14 x i8], [14 x i8]* @.str, i64 0, i64 0))
  br label %66

62:                                               ; preds = %5
  %63 = load double, double* %12, align 8
  %64 = call double @sqrt(double %63) #3
  %65 = call i32 (i8*, ...) @printf(i8* getelementptr inbounds ([6 x i8], [6 x i8]* @.str.1, i64 0, i64 0), double %64)
  br label %66

66:                                               ; preds = %62, %60
  ret double 0.000000e+00
}

; Function Attrs: nounwind
declare dso_local double @cos(double) #1

declare dso_local i32 @printf(i8*, ...) #2

; Function Attrs: nounwind
declare dso_local double @sqrt(double) #1

; Function Attrs: noinline nounwind uwtable
define dso_local i32 @main() #0 {
  %1 = alloca double, align 8
  %2 = alloca double, align 8
  %3 = alloca double, align 8
  %4 = alloca double, align 8
  %5 = alloca double, align 8
  %6 = call i32 (i8*, ...) @__isoc99_scanf(i8* getelementptr inbounds ([16 x i8], [16 x i8]* @.str.2, i64 0, i64 0), double* %1, double* %2, double* %3, double* %4, double* %5)
  %7 = load double, double* %1, align 8
  %8 = load double, double* %2, align 8
  %9 = load double, double* %3, align 8
  %10 = load double, double* %4, align 8
  %11 = load double, double* %5, align 8
  %12 = call double @i(double %7, double %8, double %9, double %10, double %11)
  ret i32 0
}

declare dso_local i32 @__isoc99_scanf(i8*, ...) #2


!llvm.module.flags = !{!0}
!llvm.ident = !{!1}

!0 = !{i32 1, !"wchar_size", i32 4}
!1 = !{!"clang version 10.0.0-4ubuntu1 "}
